; Function Attrs: mustprogress nounwind uwtable
define dso_local noundef i64 @_ZNK4llvm11MCAssembler18getSectionFileSizeERKNS_9MCSectionE(ptr noundef nonnull align 8 dereferenceable(372) %0, ptr nocapture noundef nonnull readonly align 8 dereferenceable(148) %1) local_unnamed_addr #0 align 2 {
  %3 = getelementptr inbounds nuw i8, ptr %1, i64 48
  %4 = load i8, ptr %3, align 8
  %5 = and i8 %4, 32
  %.not = icmp eq i8 %5, 0
  br i1 %.not, label %6, label %37

6:                                                ; preds = %2
  %7 = getelementptr inbounds nuw i8, ptr %1, i64 8
  %8 = load ptr, ptr %7, align 8
  %9 = getelementptr inbounds nuw i8, ptr %8, i64 8
  %10 = load ptr, ptr %9, align 8
  %11 = getelementptr inbounds nuw i8, ptr %10, i64 8
  %12 = load ptr, ptr %11, align 8
  %13 = getelementptr inbounds nuw i8, ptr %12, i64 48
  %14 = load i8, ptr %13, align 8
  %15 = and i8 %14, 4
  %.not.i.i.i = icmp eq i8 %15, 0
  br i1 %.not.i.i.i, label %16, label %_ZNK4llvm11MCAssembler21getSectionAddressSizeERKNS_9MCSectionE.exit

16:                                               ; preds = %6
  %17 = or disjoint i8 %14, 4
  store i8 %17, ptr %13, align 8
  %18 = getelementptr inbounds nuw i8, ptr %12, i64 8
  %19 = load ptr, ptr %18, align 8
  %.sroa.015.020.i.i.i = load ptr, ptr %19, align 8
  %.not1821.i.i.i = icmp eq ptr %.sroa.015.020.i.i.i, null
  br i1 %.not1821.i.i.i, label %_ZNK4llvm11MCAssembler21getSectionAddressSizeERKNS_9MCSectionE.exit, label %.lr.ph.i.i.i

.lr.ph.i.i.i:                                     ; preds = %16
  %20 = getelementptr inbounds nuw i8, ptr %0, i64 368
  br label %21

21:                                               ; preds = %30, %.lr.ph.i.i.i
  %.sroa.015.024.i.i.i = phi ptr [ %.sroa.015.020.i.i.i, %.lr.ph.i.i.i ], [ %.sroa.015.0.i.i.i, %30 ]
  %.023.i.i.i = phi ptr [ null, %.lr.ph.i.i.i ], [ %.sroa.015.024.i.i.i, %30 ]
  %.01422.i.i.i = phi i64 [ 0, %.lr.ph.i.i.i ], [ %32, %30 ]
  %22 = getelementptr inbounds nuw i8, ptr %.sroa.015.024.i.i.i, i64 16
  store i64 %.01422.i.i.i, ptr %22, align 8
  %23 = load i32, ptr %20, align 8
  %.not19.i.i.i = icmp eq i32 %23, 0
  br i1 %.not19.i.i.i, label %30, label %24

24:                                               ; preds = %21
  %25 = getelementptr inbounds nuw i8, ptr %.sroa.015.024.i.i.i, i64 29
  %26 = load i8, ptr %25, align 1
  %27 = trunc i8 %26 to i1
  br i1 %27, label %28, label %30

28:                                               ; preds = %24
  tail call void @_ZNK4llvm11MCAssembler12layoutBundleEPNS_10MCFragmentES2_(ptr noundef nonnull align 8 dereferenceable(372) %0, ptr noundef %.023.i.i.i, ptr noundef nonnull %.sroa.015.024.i.i.i)
  %29 = load i64, ptr %22, align 8
  br label %30

30:                                               ; preds = %28, %24, %21
  %.1.i.i.i = phi i64 [ %29, %28 ], [ %.01422.i.i.i, %24 ], [ %.01422.i.i.i, %21 ]
  %31 = tail call noundef i64 @_ZNK4llvm11MCAssembler19computeFragmentSizeERKNS_10MCFragmentE(ptr noundef nonnull align 8 dereferenceable(372) %0, ptr noundef nonnull align 8 dereferenceable(30) %.sroa.015.024.i.i.i)
  %32 = add i64 %31, %.1.i.i.i
  %.sroa.015.0.i.i.i = load ptr, ptr %.sroa.015.024.i.i.i, align 8
  %.not18.i.i.i = icmp eq ptr %.sroa.015.0.i.i.i, null
  br i1 %.not18.i.i.i, label %_ZNK4llvm11MCAssembler21getSectionAddressSizeERKNS_9MCSectionE.exit, label %21

_ZNK4llvm11MCAssembler21getSectionAddressSizeERKNS_9MCSectionE.exit: ; preds = %30, %6, %16
  %33 = getelementptr inbounds nuw i8, ptr %10, i64 16
  %34 = load i64, ptr %33, align 8
  %35 = tail call noundef i64 @_ZNK4llvm11MCAssembler19computeFragmentSizeERKNS_10MCFragmentE(ptr noundef nonnull align 8 dereferenceable(372) %0, ptr noundef nonnull align 8 dereferenceable(30) %10)
  %36 = add i64 %35, %34
  br label %37

37:                                               ; preds = %2, %_ZNK4llvm11MCAssembler21getSectionAddressSizeERKNS_9MCSectionE.exit
  %.0 = phi i64 [ %36, %_ZNK4llvm11MCAssembler21getSectionAddressSizeERKNS_9MCSectionE.exit ], [ 0, %2 ]
  ret i64 %.0
}